; ModuleID = 'bench/llama.cpp/original/ggml-threading.ll'
source_filename = "bench/llama.cpp/original/ggml-threading.ll"
target datalayout = "e-m:e-p270:32:32-p271:32:32-p272:64:64-i64:64-i128:128-f80:128-n8:16:32:64-S128"
target triple = "x86_64-pc-linux-gnu"

%union.pthread_mutex_t = type { %struct.__pthread_mutex_s }
%struct.__pthread_mutex_s = type { i32, i32, i32, i32, i32, i16, i16, %struct.__pthread_internal_list }
%struct.__pthread_internal_list = type { ptr, ptr }

@ggml_critical_section_mutex = global { %union.pthread_mutex_t } zeroinitializer, align 8

; Function Attrs: mustprogress uwtable
define void @ggml_critical_section_start() local_unnamed_addr #0 {
  %1 = tail call noundef i32 @pthread_mutex_lock(ptr noundef nonnull @ggml_critical_section_mutex) #4
  %.not.i = icmp eq i32 %1, 0
  br i1 %.not.i, label %_ZNSt5mutex4lockEv.exit, label %2

2:                                                ; preds = %0
  tail call void @_ZSt20__throw_system_errori(i32 noundef %1) #5
  unreachable

_ZNSt5mutex4lockEv.exit:                          ; preds = %0
  ret void
}

; Function Attrs: mustprogress nounwind uwtable
define void @ggml_critical_section_end() local_unnamed_addr #1 {
  %1 = tail call noundef i32 @pthread_mutex_unlock(ptr noundef nonnull @ggml_critical_section_mutex) #4
  ret void
}

; Function Attrs: noreturn
declare void @_ZSt20__throw_system_errori(i32 noundef) local_unnamed_addr #2

; Function Attrs: nounwind
declare i32 @pthread_mutex_lock(ptr noundef) local_unnamed_addr #3

; Function Attrs: nounwind
declare i32 @pthread_mutex_unlock(ptr noundef) local_unnamed_addr #3


!llvm.module.flags = !{!0, !1, !2}

!0 = !{i32 1, !"wchar_size", i32 4}
!1 = !{i32 8, !"PIC Level", i32 2}
!2 = !{i32 7, !"uwtable", i32 2}
